target datalayout = "e-m:e-p270:32:32-p271:32:32-p272:64:64-i64:64-i128:128-f80:128-n8:16:32:64-S128"
target triple = "x86_64-pc-linux-gnu"

%"struct.vcpkg::LocalizedString" = type { %"class.std::__cxx11::basic_string" }
%"class.std::__cxx11::basic_string" = type { %"struct.std::__cxx11::basic_string<char>::_Alloc_hider", i64, %union.anon.1 }
%"struct.std::__cxx11::basic_string<char>::_Alloc_hider" = type { ptr }
%union.anon.1 = type { i64, [8 x i8] }
%"struct.vcpkg::LineInfo" = type { i32, ptr }
%"struct.vcpkg::ExpectedT.15" = type <{ %union.anon.16, i8, [7 x i8] }>
%union.anon.16 = type { %"struct.vcpkg::LocalizedString" }
%"struct.vcpkg::Path" = type { %"class.std::__cxx11::basic_string" }
%"struct.vcpkg::RegistryImplementation" = type { ptr }
%"struct.(anonymous namespace)::GitRegistry" = type { %"struct.vcpkg::RegistryImplementation", ptr, %"class.std::__cxx11::basic_string", %"class.std::__cxx11::basic_string", %"class.std::__cxx11::basic_string", %"struct.vcpkg::DelayedInit.421", %"struct.vcpkg::Optional.430", %"struct.vcpkg::DelayedInit.433", %"struct.vcpkg::DelayedInit.442" }
%"struct.vcpkg::DelayedInit.421" = type { %"class.std::unique_ptr.422" }
%"class.std::unique_ptr.422" = type { %"struct.std::__uniq_ptr_data.423" }
%"struct.std::__uniq_ptr_data.423" = type { %"class.std::__uniq_ptr_impl.424" }
%"class.std::__uniq_ptr_impl.424" = type { %"class.std::tuple.425" }
%"class.std::tuple.425" = type { %"struct.std::_Tuple_impl.426" }
%"struct.std::_Tuple_impl.426" = type { %"struct.std::_Head_base.429" }
%"struct.std::_Head_base.429" = type { ptr }
%"struct.vcpkg::Optional.430" = type { %"struct.vcpkg::details::OptionalStorage.431" }
%"struct.vcpkg::details::OptionalStorage.431" = type { i8, %union.anon.432 }
%union.anon.432 = type { %"struct.vcpkg::Path" }
%"struct.vcpkg::DelayedInit.433" = type { %"class.std::unique_ptr.434" }
%"class.std::unique_ptr.434" = type { %"struct.std::__uniq_ptr_data.435" }
%"struct.std::__uniq_ptr_data.435" = type { %"class.std::__uniq_ptr_impl.436" }
%"class.std::__uniq_ptr_impl.436" = type { %"class.std::tuple.437" }
%"class.std::tuple.437" = type { %"struct.std::_Tuple_impl.438" }
%"struct.std::_Tuple_impl.438" = type { %"struct.std::_Head_base.441" }
%"struct.std::_Head_base.441" = type { ptr }
%"struct.vcpkg::DelayedInit.442" = type { %"class.std::unique_ptr.443" }
%"class.std::unique_ptr.443" = type { %"struct.std::__uniq_ptr_data.444" }
%"struct.std::__uniq_ptr_data.444" = type { %"class.std::__uniq_ptr_impl.445" }
%"class.std::__uniq_ptr_impl.445" = type { %"class.std::tuple.446" }
%"class.std::tuple.446" = type { %"struct.std::_Tuple_impl.447" }
%"struct.std::_Tuple_impl.447" = type { %"struct.std::_Head_base.450" }
%"struct.std::_Head_base.450" = type { ptr }
%"struct.vcpkg::ExpectedT.470" = type <{ %union.anon.471, i8, [7 x i8] }>
%union.anon.471 = type { %"struct.vcpkg::LocalizedString", [8 x i8] }
%"struct.(anonymous namespace)::GitRegistry::VersionsTreePathResult" = type <{ %"struct.vcpkg::Path", i8, [7 x i8] }>
%"struct.vcpkg::ExpectedHolder.472" = type { %"struct.(anonymous namespace)::GitRegistry::VersionsTreePathResult" }

@.str.10 = private unnamed_addr constant [124 x i8] c"generated/home/dtcxzyw/WorkSpace/Projects/compilers/llvm-opt-benchmark/bench/vcpkg/vcpkg-tool/include/vcpkg/base/expected.h\00", align 1

; Function Attrs: mustprogress nounwind uwtable
define linkonce_odr dso_local void @_ZN5vcpkg4PathD2Ev(ptr noundef nonnull align 8 dereferenceable(32) %0) unnamed_addr #1 comdat align 2 {
  %2 = alloca ptr, align 8
  store ptr %0, ptr %2, align 8
  %3 = load ptr, ptr %2, align 8
  %4 = getelementptr inbounds %"struct.vcpkg::Path", ptr %3, i32 0, i32 0
  call void @_ZNSt7__cxx1112basic_stringIcSt11char_traitsIcESaIcEED1Ev(ptr noundef nonnull align 8 dereferenceable(32) %4) #2
  ret void
}

; Function Attrs: noreturn nounwind uwtable
define linkonce_odr hidden void @__clang_call_terminate(ptr noundef %0) #8 comdat {
  %2 = call ptr @__cxa_begin_catch(ptr %0) #2
  call void @_ZSt9terminatev() #19
  unreachable
}

; Function Attrs: mustprogress nounwind uwtable
define internal void @_ZN12_GLOBAL__N_111GitRegistry22VersionsTreePathResultD2Ev(ptr noundef nonnull align 8 dereferenceable(33) %0) unnamed_addr #1 align 2 {
  %2 = alloca ptr, align 8
  store ptr %0, ptr %2, align 8
  %3 = load ptr, ptr %2, align 8
  %4 = getelementptr inbounds %"struct.(anonymous namespace)::GitRegistry::VersionsTreePathResult", ptr %3, i32 0, i32 0
  call void @_ZN5vcpkg4PathD2Ev(ptr noundef nonnull align 8 dereferenceable(32) %4) #2
  ret void
}

; Function Attrs: mustprogress nounwind uwtable
define linkonce_odr dso_local void @_ZN5vcpkg15LocalizedStringC2EOS0_(ptr noundef nonnull align 8 dereferenceable(32) %0, ptr noundef nonnull align 8 dereferenceable(32) %1) unnamed_addr #1 comdat align 2 {
  %3 = alloca ptr, align 8
  %4 = alloca ptr, align 8
  store ptr %0, ptr %3, align 8
  store ptr %1, ptr %4, align 8
  %5 = load ptr, ptr %3, align 8
  %6 = getelementptr inbounds %"struct.vcpkg::LocalizedString", ptr %5, i32 0, i32 0
  %7 = load ptr, ptr %4, align 8
  %8 = getelementptr inbounds %"struct.vcpkg::LocalizedString", ptr %7, i32 0, i32 0
  call void @_ZNSt7__cxx1112basic_stringIcSt11char_traitsIcESaIcEEC1EOS4_(ptr noundef nonnull align 8 dereferenceable(32) %6, ptr noundef nonnull align 8 dereferenceable(32) %8) #2
  ret void
}

; Function Attrs: mustprogress nounwind uwtable
define internal void @_ZNK5vcpkg9ExpectedTIN12_GLOBAL__N_111GitRegistry22VersionsTreePathResultENS_15LocalizedStringEE24unreachable_if_not_errorERKNS_8LineInfoE(ptr noundef nonnull align 8 dereferenceable(41) %0, ptr noundef nonnull align 8 dereferenceable(16) %1) #1 align 2 personality ptr @__gxx_personality_v0 {
  %3 = alloca ptr, align 8
  %4 = alloca ptr, align 8
  store ptr %0, ptr %3, align 8
  store ptr %1, ptr %4, align 8
  %5 = load ptr, ptr %3, align 8
  %6 = getelementptr inbounds %"struct.vcpkg::ExpectedT.470", ptr %5, i32 0, i32 1
  %7 = load i8, ptr %6, align 8
  %8 = trunc i8 %7 to i1
  br i1 %8, label %12, label %9

9:                                                ; preds = %2
  %10 = load ptr, ptr %4, align 8
  invoke void @_ZN5vcpkg6Checks11unreachableERKNS_8LineInfoE(ptr noundef nonnull align 8 dereferenceable(16) %10) #24
          to label %11 unwind label %13

11:                                               ; preds = %9
  unreachable

12:                                               ; preds = %2
  ret void

13:                                               ; preds = %9
  %14 = landingpad { ptr, i32 }
          catch ptr null
  %15 = extractvalue { ptr, i32 } %14, 0
  call void @__clang_call_terminate(ptr %15) #19
  unreachable
}

; Function Attrs: mustprogress nounwind uwtable
define internal void @_ZN5vcpkg14ExpectedHolderIN12_GLOBAL__N_111GitRegistry22VersionsTreePathResultEED2Ev(ptr noundef nonnull align 8 dereferenceable(40) %0) unnamed_addr #1 align 2 {
  %2 = alloca ptr, align 8
  store ptr %0, ptr %2, align 8
  %3 = load ptr, ptr %2, align 8
  %4 = getelementptr inbounds %"struct.vcpkg::ExpectedHolder.472", ptr %3, i32 0, i32 0
  call void @_ZN12_GLOBAL__N_111GitRegistry22VersionsTreePathResultD2Ev(ptr noundef nonnull align 8 dereferenceable(33) %4) #2
  ret void
}

; Function Attrs: mustprogress nounwind uwtable
define linkonce_odr dso_local void @_ZN5vcpkg15LocalizedStringD2Ev(ptr noundef nonnull align 8 dereferenceable(32) %0) unnamed_addr #1 comdat align 2 {
  %2 = alloca ptr, align 8
  store ptr %0, ptr %2, align 8
  %3 = load ptr, ptr %2, align 8
  %4 = getelementptr inbounds %"struct.vcpkg::LocalizedString", ptr %3, i32 0, i32 0
  call void @_ZNSt7__cxx1112basic_stringIcSt11char_traitsIcESaIcEED1Ev(ptr noundef nonnull align 8 dereferenceable(32) %4) #2
  ret void
}

; Function Attrs: mustprogress nounwind uwtable
define internal noundef ptr @_ZN5vcpkg14ExpectedHolderIN12_GLOBAL__N_111GitRegistry22VersionsTreePathResultEE3getEv(ptr noundef nonnull align 8 dereferenceable(40) %0) #1 align 2 {
  %2 = alloca ptr, align 8
  store ptr %0, ptr %2, align 8
  %3 = load ptr, ptr %2, align 8
  %4 = getelementptr inbounds %"struct.vcpkg::ExpectedHolder.472", ptr %3, i32 0, i32 0
  ret ptr %4
}

; Function Attrs: mustprogress nounwind uwtable
define linkonce_odr dso_local void @_ZN5vcpkg9ExpectedTINS_4UnitENS_15LocalizedStringEEC2IS2_TnNSt9enable_ifIXaasr3stdE16is_convertible_vIT_S2_Entsr3stdE9is_same_vINSt16remove_referenceIS6_E4typeES1_EEiE4typeELi0ELi1EEEOS6_(ptr noundef nonnull align 8 dereferenceable(33) %0, ptr noundef nonnull align 8 dereferenceable(32) %1) unnamed_addr #1 comdat align 2 {
  %3 = alloca ptr, align 8
  %4 = alloca ptr, align 8
  store ptr %0, ptr %3, align 8
  store ptr %1, ptr %4, align 8
  %5 = load ptr, ptr %3, align 8
  %6 = getelementptr inbounds %"struct.vcpkg::ExpectedT.15", ptr %5, i32 0, i32 0
  %7 = load ptr, ptr %4, align 8
  call void @_ZN5vcpkg15LocalizedStringC2EOS0_(ptr noundef nonnull align 8 dereferenceable(32) %6, ptr noundef nonnull align 8 dereferenceable(32) %7) #2
  %8 = getelementptr inbounds %"struct.vcpkg::ExpectedT.15", ptr %5, i32 0, i32 1
  store i8 1, ptr %8, align 8
  ret void
}

; Function Attrs: mustprogress nounwind uwtable
define internal noundef nonnull align 8 dereferenceable(32) ptr @_ZNO5vcpkg9ExpectedTIN12_GLOBAL__N_111GitRegistry22VersionsTreePathResultENS_15LocalizedStringEE5errorEv(ptr noundef nonnull align 8 dereferenceable(41) %0) #1 align 2 {
  %2 = alloca ptr, align 8
  %3 = alloca %"struct.vcpkg::LineInfo", align 8
  store ptr %0, ptr %2, align 8
  %4 = load ptr, ptr %2, align 8
  %5 = getelementptr inbounds %"struct.vcpkg::LineInfo", ptr %3, i32 0, i32 0
  store i32 239, ptr %5, align 8
  %6 = getelementptr inbounds %"struct.vcpkg::LineInfo", ptr %3, i32 0, i32 1
  store ptr @.str.10, ptr %6, align 8
  call void @_ZNK5vcpkg9ExpectedTIN12_GLOBAL__N_111GitRegistry22VersionsTreePathResultENS_15LocalizedStringEE24unreachable_if_not_errorERKNS_8LineInfoE(ptr noundef nonnull align 8 dereferenceable(41) %4, ptr noundef nonnull align 8 dereferenceable(16) %3) #2
  %7 = getelementptr inbounds %"struct.vcpkg::ExpectedT.470", ptr %4, i32 0, i32 0
  ret ptr %7
}

; Function Attrs: mustprogress nounwind uwtable
define internal void @_ZN5vcpkg9ExpectedTIN12_GLOBAL__N_111GitRegistry22VersionsTreePathResultENS_15LocalizedStringEED2Ev(ptr noundef nonnull align 8 dereferenceable(41) %0) unnamed_addr #1 align 2 {
  %2 = alloca ptr, align 8
  store ptr %0, ptr %2, align 8
  %3 = load ptr, ptr %2, align 8
  %4 = getelementptr inbounds %"struct.vcpkg::ExpectedT.470", ptr %3, i32 0, i32 1
  %5 = load i8, ptr %4, align 8
  %6 = trunc i8 %5 to i1
  br i1 %6, label %7, label %9

7:                                                ; preds = %1
  %8 = getelementptr inbounds %"struct.vcpkg::ExpectedT.470", ptr %3, i32 0, i32 0
  call void @_ZN5vcpkg15LocalizedStringD2Ev(ptr noundef nonnull align 8 dereferenceable(32) %8) #2
  br label %11

9:                                                ; preds = %1
  %10 = getelementptr inbounds %"struct.vcpkg::ExpectedT.470", ptr %3, i32 0, i32 0
  call void @_ZN5vcpkg14ExpectedHolderIN12_GLOBAL__N_111GitRegistry22VersionsTreePathResultEED2Ev(ptr noundef nonnull align 8 dereferenceable(40) %10) #2
  br label %11

11:                                               ; preds = %9, %7
  ret void
}

; Function Attrs: mustprogress nounwind uwtable
define internal noundef ptr @_ZN5vcpkg9ExpectedTIN12_GLOBAL__N_111GitRegistry22VersionsTreePathResultENS_15LocalizedStringEE3getEv(ptr noundef nonnull align 8 dereferenceable(41) %0) #1 align 2 {
  %2 = alloca ptr, align 8
  %3 = alloca ptr, align 8
  store ptr %0, ptr %3, align 8
  %4 = load ptr, ptr %3, align 8
  %5 = getelementptr inbounds %"struct.vcpkg::ExpectedT.470", ptr %4, i32 0, i32 1
  %6 = load i8, ptr %5, align 8
  %7 = trunc i8 %6 to i1
  br i1 %7, label %8, label %9

8:                                                ; preds = %1
  store ptr null, ptr %2, align 8
  br label %12

9:                                                ; preds = %1
  %10 = getelementptr inbounds %"struct.vcpkg::ExpectedT.470", ptr %4, i32 0, i32 0
  %11 = call noundef ptr @_ZN5vcpkg14ExpectedHolderIN12_GLOBAL__N_111GitRegistry22VersionsTreePathResultEE3getEv(ptr noundef nonnull align 8 dereferenceable(40) %10) #2
  store ptr %11, ptr %2, align 8
  br label %12

12:                                               ; preds = %9, %8
  %13 = load ptr, ptr %2, align 8
  ret ptr %13
}

; Function Attrs: mustprogress uwtable
define internal void @_ZNK12_GLOBAL__N_111GitRegistry21append_all_port_namesERSt6vectorINSt7__cxx1112basic_stringIcSt11char_traitsIcESaIcEEESaIS7_EE(ptr dead_on_unwind noalias writable sret(%"struct.vcpkg::ExpectedT.15") align 8 %0, ptr noundef nonnull align 8 dereferenceable(176) %1, ptr noundef nonnull align 8 dereferenceable(24) %2) unnamed_addr #3 align 2 personality ptr @__gxx_personality_v0 {
  %4 = alloca ptr, align 8
  %5 = alloca ptr, align 8
  %6 = alloca ptr, align 8
  %7 = alloca %"struct.vcpkg::ExpectedT.470", align 8
  %8 = alloca ptr, align 8
  %9 = alloca ptr, align 8
  %10 = alloca i32, align 4
  %11 = alloca i32, align 4
  store ptr %0, ptr %4, align 8
  store ptr %1, ptr %5, align 8
  store ptr %2, ptr %6, align 8
  %12 = load ptr, ptr %5, align 8
  call void @_ZNK12_GLOBAL__N_111GitRegistry28get_stale_versions_tree_pathEv(ptr dead_on_unwind writable sret(%"struct.vcpkg::ExpectedT.470") align 8 %7, ptr noundef nonnull align 8 dereferenceable(176) %12)
  %13 = call noundef ptr @_ZN5vcpkg9ExpectedTIN12_GLOBAL__N_111GitRegistry22VersionsTreePathResultENS_15LocalizedStringEE3getEv(ptr noundef nonnull align 8 dereferenceable(41) %7) #2
  store ptr %13, ptr %8, align 8
  %14 = load ptr, ptr %8, align 8
  %15 = icmp ne ptr %14, null
  br i1 %15, label %16, label %29

16:                                               ; preds = %3
  %17 = load ptr, ptr %6, align 8
  %18 = getelementptr inbounds %"struct.(anonymous namespace)::GitRegistry", ptr %12, i32 0, i32 1
  %19 = load ptr, ptr %18, align 8
  %20 = invoke noundef nonnull align 8 dereferenceable(8) ptr @_ZNK5vcpkg10VcpkgPaths14get_filesystemEv(ptr noundef nonnull align 8 dereferenceable(400) %19)
          to label %21 unwind label %25

21:                                               ; preds = %16
  %22 = load ptr, ptr %8, align 8
  %23 = getelementptr inbounds %"struct.(anonymous namespace)::GitRegistry::VersionsTreePathResult", ptr %22, i32 0, i32 0
  invoke void @_ZN12_GLOBAL__N_142load_all_port_names_from_registry_versionsERSt6vectorINSt7__cxx1112basic_stringIcSt11char_traitsIcESaIcEEESaIS6_EERKN5vcpkg18ReadOnlyFilesystemERKNSA_4PathE(ptr dead_on_unwind writable sret(%"struct.vcpkg::ExpectedT.15") align 8 %0, ptr noundef nonnull align 8 dereferenceable(24) %17, ptr noundef nonnull align 8 dereferenceable(8) %20, ptr noundef nonnull align 8 dereferenceable(32) %23)
          to label %24 unwind label %25

24:                                               ; preds = %21
  store i32 1, ptr %11, align 4
  br label %31

25:                                               ; preds = %21, %16
  %26 = landingpad { ptr, i32 }
          cleanup
  %27 = extractvalue { ptr, i32 } %26, 0
  store ptr %27, ptr %9, align 8
  %28 = extractvalue { ptr, i32 } %26, 1
  store i32 %28, ptr %10, align 4
  call void @_ZN5vcpkg9ExpectedTIN12_GLOBAL__N_111GitRegistry22VersionsTreePathResultENS_15LocalizedStringEED2Ev(ptr noundef nonnull align 8 dereferenceable(41) %7) #2
  br label %32

29:                                               ; preds = %3
  %30 = call noundef nonnull align 8 dereferenceable(32) ptr @_ZNO5vcpkg9ExpectedTIN12_GLOBAL__N_111GitRegistry22VersionsTreePathResultENS_15LocalizedStringEE5errorEv(ptr noundef nonnull align 8 dereferenceable(41) %7) #2
  call void @_ZN5vcpkg9ExpectedTINS_4UnitENS_15LocalizedStringEEC2IS2_TnNSt9enable_ifIXaasr3stdE16is_convertible_vIT_S2_Entsr3stdE9is_same_vINSt16remove_referenceIS6_E4typeES1_EEiE4typeELi0ELi1EEEOS6_(ptr noundef nonnull align 8 dereferenceable(33) %0, ptr noundef nonnull align 8 dereferenceable(32) %30) #2
  store i32 1, ptr %11, align 4
  br label %31

31:                                               ; preds = %29, %24
  call void @_ZN5vcpkg9ExpectedTIN12_GLOBAL__N_111GitRegistry22VersionsTreePathResultENS_15LocalizedStringEED2Ev(ptr noundef nonnull align 8 dereferenceable(41) %7) #2
  ret void

32:                                               ; preds = %25
  %33 = load ptr, ptr %9, align 8
  %34 = load i32, ptr %10, align 4
  %35 = insertvalue { ptr, i32 } poison, ptr %33, 0
  %36 = insertvalue { ptr, i32 } %35, i32 %34, 1
  resume { ptr, i32 } %36
}