; Function Attrs: mustprogress uwtable
define internal void @_ZNK12_GLOBAL__N_111GitRegistry21append_all_port_namesERSt6vectorINSt7__cxx1112basic_stringIcSt11char_traitsIcESaIcEEESaIS7_EE(ptr dead_on_unwind noalias writable sret(%"struct.vcpkg::ExpectedT.15") align 8 %0, ptr noundef nonnull align 8 dereferenceable(176) %1, ptr noundef nonnull align 8 dereferenceable(24) %2) unnamed_addr #2 align 2 personality ptr @__gxx_personality_v0 {
  %4 = alloca %"struct.vcpkg::ExpectedT.470", align 8
  call fastcc void @_ZNK12_GLOBAL__N_111GitRegistry28get_stale_versions_tree_pathEv(ptr dead_on_unwind noalias nonnull writable align 8 %4, ptr noundef nonnull align 8 dereferenceable(176) %1)
  %5 = getelementptr inbounds i8, ptr %4, i64 40
  %6 = load i8, ptr %5, align 8
  %7 = and i8 %6, 1
  %.not.i.not = icmp eq i8 %7, 0
  br i1 %.not.i.not, label %8, label %_ZNO5vcpkg9ExpectedTIN12_GLOBAL__N_111GitRegistry22VersionsTreePathResultENS_15LocalizedStringEE5errorEv.exit

8:                                                ; preds = %3
  %9 = getelementptr inbounds i8, ptr %1, i64 8
  %10 = load ptr, ptr %9, align 8
  %11 = invoke noundef nonnull align 8 dereferenceable(8) ptr @_ZNK5vcpkg10VcpkgPaths14get_filesystemEv(ptr noundef nonnull align 8 dereferenceable(400) %10)
          to label %12 unwind label %13

12:                                               ; preds = %8
  invoke fastcc void @_ZN12_GLOBAL__N_142load_all_port_names_from_registry_versionsERSt6vectorINSt7__cxx1112basic_stringIcSt11char_traitsIcESaIcEEESaIS6_EERKN5vcpkg18ReadOnlyFilesystemERKNSA_4PathE(ptr dead_on_unwind noalias writable align 8 %0, ptr noundef nonnull align 8 dereferenceable(24) %2, ptr noundef nonnull align 8 dereferenceable(8) %11, ptr noundef nonnull align 8 dereferenceable(32) %4)
          to label %16 unwind label %13

13:                                               ; preds = %12, %8
  %14 = landingpad { ptr, i32 }
          cleanup
  call void @_ZNSt7__cxx1112basic_stringIcSt11char_traitsIcESaIcEED1Ev(ptr noundef nonnull align 8 dereferenceable(32) %4) #26
  resume { ptr, i32 } %14

_ZNO5vcpkg9ExpectedTIN12_GLOBAL__N_111GitRegistry22VersionsTreePathResultENS_15LocalizedStringEE5errorEv.exit: ; preds = %3
  call void @_ZNSt7__cxx1112basic_stringIcSt11char_traitsIcESaIcEEC1EOS4_(ptr noundef nonnull align 8 dereferenceable(32) %0, ptr noundef nonnull align 8 dereferenceable(32) %4) #26
  %15 = getelementptr inbounds i8, ptr %0, i64 32
  store i8 1, ptr %15, align 8
  br label %16

16:                                               ; preds = %12, %_ZNO5vcpkg9ExpectedTIN12_GLOBAL__N_111GitRegistry22VersionsTreePathResultENS_15LocalizedStringEE5errorEv.exit
  call void @_ZNSt7__cxx1112basic_stringIcSt11char_traitsIcESaIcEED1Ev(ptr noundef nonnull align 8 dereferenceable(32) %4) #26
  ret void
}